target datalayout = "e-m:e-p270:32:32-p271:32:32-p272:64:64-i64:64-i128:128-f80:128-n8:16:32:64-S128"
target triple = "x86_64-pc-linux-gnu"

%"class.grpc_core::CompressionAlgorithmSet" = type { %"class.grpc_core::BitSet" }
%"class.grpc_core::BitSet" = type { [1 x i8] }

; Function Attrs: mustprogress nounwind uwtable
define linkonce_odr noundef i64 @_ZN9grpc_core6BitSetILm3ELm8EE8unit_forEm(i64 noundef %0) #4 comdat align 2 {
  %2 = alloca i64, align 8
  store i64 %0, ptr %2, align 8, !tbaa !17
  %3 = load i64, ptr %2, align 8, !tbaa !17
  %4 = udiv i64 %3, 8
  ret i64 %4
}

; Function Attrs: mustprogress nounwind uwtable
define linkonce_odr noundef zeroext i8 @_ZN9grpc_core6BitSetILm3ELm8EE8mask_forEm(i64 noundef %0) #4 comdat align 2 {
  %2 = alloca i64, align 8
  store i64 %0, ptr %2, align 8, !tbaa !17
  %3 = load i64, ptr %2, align 8, !tbaa !17
  %4 = urem i64 %3, 8
  %5 = trunc i64 %4 to i32
  %6 = shl i32 1, %5
  %7 = trunc i32 %6 to i8
  ret i8 %7
}

; Function Attrs: mustprogress nounwind uwtable
define linkonce_odr void @_ZN9grpc_core6BitSetILm3ELm8EE3setEi(ptr noundef nonnull align 1 dereferenceable(1) %0, i32 noundef %1) #4 comdat align 2 {
  %3 = alloca ptr, align 8
  %4 = alloca i32, align 4
  store ptr %0, ptr %3, align 8, !tbaa !66
  store i32 %1, ptr %4, align 4, !tbaa !37
  %5 = load ptr, ptr %3, align 8
  %6 = load i32, ptr %4, align 4, !tbaa !37
  %7 = sext i32 %6 to i64
  %8 = call noundef zeroext i8 @_ZN9grpc_core6BitSetILm3ELm8EE8mask_forEm(i64 noundef %7)
  %9 = zext i8 %8 to i32
  %10 = getelementptr inbounds nuw %"class.grpc_core::BitSet", ptr %5, i32 0, i32 0
  %11 = load i32, ptr %4, align 4, !tbaa !37
  %12 = sext i32 %11 to i64
  %13 = call noundef i64 @_ZN9grpc_core6BitSetILm3ELm8EE8unit_forEm(i64 noundef %12)
  %14 = getelementptr inbounds nuw [1 x i8], ptr %10, i64 0, i64 %13
  %15 = load i8, ptr %14, align 1, !tbaa !19
  %16 = zext i8 %15 to i32
  %17 = or i32 %16, %9
  %18 = trunc i32 %17 to i8
  store i8 %18, ptr %14, align 1, !tbaa !19
  ret void
}

; Function Attrs: mustprogress uwtable
define void @_ZN9grpc_core23CompressionAlgorithmSet3SetE26grpc_compression_algorithm(ptr noundef nonnull align 1 dereferenceable(1) %0, i32 noundef %1) #5 align 2 {
  %3 = alloca ptr, align 8
  %4 = alloca i32, align 4
  %5 = alloca i64, align 8
  store ptr %0, ptr %3, align 8, !tbaa !33
  store i32 %1, ptr %4, align 4, !tbaa !3
  %6 = load ptr, ptr %3, align 8
  call void @llvm.lifetime.start.p0(i64 8, ptr %5) #3
  %7 = load i32, ptr %4, align 4, !tbaa !3
  %8 = zext i32 %7 to i64
  store i64 %8, ptr %5, align 8, !tbaa !17
  %9 = load i64, ptr %5, align 8, !tbaa !17
  %10 = icmp ult i64 %9, 3
  br i1 %10, label %11, label %15

11:                                               ; preds = %2
  %12 = getelementptr inbounds nuw %"class.grpc_core::CompressionAlgorithmSet", ptr %6, i32 0, i32 0
  %13 = load i64, ptr %5, align 8, !tbaa !17
  %14 = trunc i64 %13 to i32
  call void @_ZN9grpc_core6BitSetILm3ELm8EE3setEi(ptr noundef nonnull align 1 dereferenceable(1) %12, i32 noundef %14)
  br label %15

15:                                               ; preds = %11, %2
  call void @llvm.lifetime.end.p0(i64 8, ptr %5) #3
  ret void
}