; Function Attrs: mustprogress nofree norecurse nosync nounwind willreturn memory(argmem: readwrite) uwtable
define void @_ZN9grpc_core23CompressionAlgorithmSet3SetE26grpc_compression_algorithm(ptr noundef nonnull align 1 captures(none) dereferenceable(1) %0, i32 noundef %1) local_unnamed_addr #13 align 2 {
  %3 = icmp ult i32 %1, 3
  br i1 %3, label %4, label %9

4:                                                ; preds = %2
  %5 = trunc nuw i32 %1 to i8
  %6 = shl nuw nsw i8 1, %5
  %7 = load i8, ptr %0, align 1, !tbaa !6
  %8 = or i8 %7, %6
  store i8 %8, ptr %0, align 1, !tbaa !6
  br label %9

9:                                                ; preds = %4, %2
  ret void
}